ccopy_reg
_reconstructor
p0
(cdedupe.datamodel
DataModel
p1
c__builtin__
dict
p2
(dp3
S'fields'
p4
(lp5
g0
(cdedupe.fieldclasses
StringType
p6
c__builtin__
object
p7
Ntp8
Rp9
(dp10
S'predicates'
p11
(lp12
g0
(cdedupe.predicates
SimplePredicate
p13
g7
Ntp14
Rp15
(dp16
S'__name__'
p17
S'(wholeFieldPredicate, title)'
p18
sS'func'
p19
cdedupe.predicates
wholeFieldPredicate
p20
sS'field'
p21
S'title'
p22
sbag0
(g13
g7
Ntp23
Rp24
(dp25
g17
S'(tokenFieldPredicate, title)'
p26
sg19
cdedupe.predicates
tokenFieldPredicate
p27
sg21
g22
sbag0
(g13
g7
Ntp28
Rp29
(dp30
g17
S'(firstTokenPredicate, title)'
p31
sg19
cdedupe.predicates
firstTokenPredicate
p32
sg21
g22
sbag0
(g13
g7
Ntp33
Rp34
(dp35
g17
S'(commonIntegerPredicate, title)'
p36
sg19
cdedupe.predicates
commonIntegerPredicate
p37
sg21
g22
sbag0
(g13
g7
Ntp38
Rp39
(dp40
g17
S'(nearIntegersPredicate, title)'
p41
sg19
cdedupe.predicates
nearIntegersPredicate
p42
sg21
g22
sbag0
(g13
g7
Ntp43
Rp44
(dp45
g17
S'(firstIntegerPredicate, title)'
p46
sg19
cdedupe.predicates
firstIntegerPredicate
p47
sg21
g22
sbag0
(g13
g7
Ntp48
Rp49
(dp50
g17
S'(sameThreeCharStartPredicate, title)'
p51
sg19
cdedupe.predicates
sameThreeCharStartPredicate
p52
sg21
g22
sbag0
(g13
g7
Ntp53
Rp54
(dp55
g17
S'(sameFiveCharStartPredicate, title)'
p56
sg19
cdedupe.predicates
sameFiveCharStartPredicate
p57
sg21
g22
sbag0
(g13
g7
Ntp58
Rp59
(dp60
g17
S'(sameSevenCharStartPredicate, title)'
p61
sg19
cdedupe.predicates
sameSevenCharStartPredicate
p62
sg21
g22
sbag0
(g13
g7
Ntp63
Rp64
(dp65
g17
S'(commonFourGram, title)'
p66
sg19
cdedupe.predicates
commonFourGram
p67
sg21
g22
sbag0
(g13
g7
Ntp68
Rp69
(dp70
g17
S'(commonSixGram, title)'
p71
sg19
cdedupe.predicates
commonSixGram
p72
sg21
g22
sbag0
(cdedupe.predicates
TfidfPredicate
p73
g7
Ntp74
Rp75
(dp76
S'threshold'
p77
F0.2
sg17
S'(0.2, title)'
p78
sg21
g22
sbag0
(g73
g7
Ntp79
Rp80
(dp81
g77
F0.4
sg17
S'(0.4, title)'
p82
sg21
g22
sbag0
(g73
g7
Ntp83
Rp84
(dp85
g77
F0.6
sg17
S'(0.6, title)'
p86
sg21
g22
sbag0
(g73
g7
Ntp87
Rp88
(dp89
g77
F0.8
sg17
S'(0.8, title)'
p90
sg21
g22
sbasg21
g22
sS'name'
p91
S'(title: String)'
p92
sS'weight'
p93
F-1.426301121711731
sS'has_missing'
p94
I00
sbasS'bias'
p95
F2.553010328821742
stp96
Rp97
(dp98
S'total_fields'
p99
I1
sb.(lp0
ccopy_reg
_reconstructor
p1
(cdedupe.predicates
CompoundPredicate
p2
c__builtin__
object
p3
Ntp4
Rp5
(dp6
S'predicates'
p7
(g1
(cdedupe.predicates
TfidfPredicate
p8
g3
Ntp9
Rp10
(dp11
S'threshold'
p12
F0.2
sS'__name__'
p13
S'(0.2, title)'
p14
sS'field'
p15
S'title'
p16
sbg1
(g8
g3
Ntp17
Rp18
(dp19
g12
F0.8
sg13
S'(0.8, title)'
p20
sg15
g16
sbtp21
sg13
V(TfidfPredicate: (0.2, title), TfidfPredicate: (0.8, title))
p22
sbag1
(g2
g3
Ntp23
Rp24
(dp25
g7
(g1
(g8
g3
Ntp26
Rp27
(dp28
g12
F0.6
sg13
S'(0.6, title)'
p29
sg15
g16
sbg1
(cdedupe.predicates
SimplePredicate
p30
g3
Ntp31
Rp32
(dp33
g13
S'(nearIntegersPredicate, title)'
p34
sS'func'
p35
cdedupe.predicates
nearIntegersPredicate
p36
sg15
g16
sbtp37
sg13
V(TfidfPredicate: (0.6, title), SimplePredicate: (nearIntegersPredicate, title))
p38
sbag1
(g2
g3
Ntp39
Rp40
(dp41
g7
(g10
g27
tp42
sg13
V(TfidfPredicate: (0.2, title), TfidfPredicate: (0.6, title))
p43
sbag1
(g2
g3
Ntp44
Rp45
(dp46
g7
(g27
g1
(g8
g3
Ntp47
Rp48
(dp49
g12
F0.4
sg13
S'(0.4, title)'
p50
sg15
g16
sbtp51
sg13
V(TfidfPredicate: (0.6, title), TfidfPredicate: (0.4, title))
p52
sbag1
(g2
g3
Ntp53
Rp54
(dp55
g7
(g1
(g30
g3
Ntp56
Rp57
(dp58
g13
S'(commonIntegerPredicate, title)'
p59
sg35
cdedupe.predicates
commonIntegerPredicate
p60
sg15
g16
sbg48
tp61
sg13
V(SimplePredicate: (commonIntegerPredicate, title), TfidfPredicate: (0.4, title))
p62
sbag1
(g2
g3
Ntp63
Rp64
(dp65
g7
(g1
(g30
g3
Ntp66
Rp67
(dp68
g13
S'(sameThreeCharStartPredicate, title)'
p69
sg35
cdedupe.predicates
sameThreeCharStartPredicate
p70
sg15
g16
sbg48
tp71
sg13
V(SimplePredicate: (sameThreeCharStartPredicate, title), TfidfPredicate: (0.4, title))
p72
sbag1
(g2
g3
Ntp73
Rp74
(dp75
g7
(g1
(g30
g3
Ntp76
Rp77
(dp78
g13
S'(commonSixGram, title)'
p79
sg35
cdedupe.predicates
commonSixGram
p80
sg15
g16
sbg48
tp81
sg13
V(SimplePredicate: (commonSixGram, title), TfidfPredicate: (0.4, title))
p82
sbag1
(g2
g3
Ntp83
Rp84
(dp85
g7
(g1
(g30
g3
Ntp86
Rp87
(dp88
g13
S'(sameFiveCharStartPredicate, title)'
p89
sg35
cdedupe.predicates
sameFiveCharStartPredicate
p90
sg15
g16
sbg57
tp91
sg13
V(SimplePredicate: (sameFiveCharStartPredicate, title), SimplePredicate: (commonIntegerPredicate, title))
p92
sbag1
(g2
g3
Ntp93
Rp94
(dp95
g7
(g67
g10
tp96
sg13
V(SimplePredicate: (sameThreeCharStartPredicate, title), TfidfPredicate: (0.2, title))
p97
sba.(dp0
S'title'
p1
c__builtin__
set
p2
((lp3
tp4
Rp5
s.